; Function Attrs: mustprogress nounwind uwtable
define dso_local void @_ZN4llvm16RISCVELFStreamer29emitInstructionsMappingSymbolEv(ptr noundef nonnull align 8 dereferenceable(6636) %0) local_unnamed_addr #0 align 2 {
  %2 = getelementptr inbounds nuw i8, ptr %0, i64 6632
  %3 = load i32, ptr %2, align 8
  %4 = icmp eq i32 %3, 1
  br i1 %4, label %12, label %5

5:                                                ; preds = %1
  %6 = getelementptr inbounds nuw i8, ptr %0, i64 8
  %7 = load ptr, ptr %6, align 8
  %8 = tail call noundef ptr @_ZN4llvm9MCContext17createLocalSymbolENS_9StringRefE(ptr noundef nonnull align 8 dereferenceable(2432) %7, ptr nonnull @.str.3, i64 2) #15
  %9 = load ptr, ptr %0, align 8
  %10 = getelementptr inbounds i8, ptr %9, i64 200
  %11 = load ptr, ptr %10, align 8
  tail call void %11(ptr noundef nonnull align 8 dereferenceable(6601) %0, ptr noundef %8, ptr null) #15
  tail call void @_ZNK4llvm11MCSymbolELF7setTypeEj(ptr noundef nonnull align 8 dereferenceable(40) %8, i32 noundef 0) #15
  tail call void @_ZNK4llvm11MCSymbolELF10setBindingEj(ptr noundef nonnull align 8 dereferenceable(40) %8, i32 noundef 0) #15
  store i32 1, ptr %2, align 8
  br label %12

12:                                               ; preds = %1, %5
  ret void
}